(dp1
I129
(dp2
I131
(I0
I1
tp3
sI100
(I2
I1
tp4
sI134
(I0
I6
tp5
sI6
(I1
I3
tp6
sI7
(I2
I0
tp7
sI40
(I1
I2
tp8
sI9
(I2
I1
tp9
sI23
(I2
I2
tp10
sI79
(I0
I2
tp11
sI16
(I2
I3
tp12
sI81
(I0
I1
tp13
sI83
(I2
I1
tp14
sI54
(I1
I3
tp15
sI87
(I2
I0
tp16
sI55
(I2
I0
tp17
sI91
(I4
I3
tp18
sI93
(I0
I1
tp19
ssI131
(dp20
I129
(I3
I1
tp21
sI100
(I1
I0
tp22
sI134
(I0
I2
tp23
sI6
(I3
I2
tp24
sI7
(I0
I2
tp25
sI40
(I1
I0
tp26
sI9
(I2
I2
tp27
sI23
(I1
I2
tp28
sI79
(I1
I1
tp29
sI16
(I1
I1
tp30
sI81
(I3
I2
tp31
sI83
(I2
I3
tp32
sI54
(I0
I0
tp33
sI55
(I1
I2
tp34
sI87
(I1
I0
tp35
sI91
(I2
I2
tp36
sI93
(I0
I0
tp37
ssI134
(dp38
I129
(I3
I0
tp39
sI131
(I2
I1
tp40
sI100
(I0
I2
tp41
sI6
(I2
I1
tp42
sI7
(I1
I3
tp43
sI40
(I3
I1
tp44
sI9
(I0
I2
tp45
sI55
(I3
I0
tp46
sI79
(I1
I0
tp47
sI16
(I2
I3
tp48
sI81
(I2
I0
tp49
sI83
(I3
I0
tp50
sI54
(I3
I1
tp51
sI87
(I3
I0
tp52
sI23
(I3
I1
tp53
sI91
(I1
I2
tp54
sI93
(I1
I1
tp55
ssI7
(dp56
I129
(I1
I1
tp57
sI131
(I1
I0
tp58
sI100
(I1
I0
tp59
sI134
(I0
I2
tp60
sI6
(I1
I2
tp61
sI40
(I3
I2
tp62
sI9
(I2
I0
tp63
sI55
(I2
I2
tp64
sI79
(I0
I0
tp65
sI16
(I0
I1
tp66
sI81
(I1
I1
tp67
sI83
(I1
I1
tp68
sI54
(I1
I2
tp69
sI23
(I0
I0
tp70
sI87
(I1
I0
tp71
sI91
(I2
I0
tp72
sI93
(I2
I3
tp73
ssI9
(dp74
I129
(I2
I1
tp75
sI131
(I2
I0
tp76
sI100
(I0
I2
tp77
sI6
(I0
I1
tp78
sI134
(I2
I0
tp79
sI7
(I3
I1
tp80
sI40
(I2
I2
tp81
sI23
(I2
I1
tp82
sI79
(I1
I0
tp83
sI16
(I1
I0
tp84
sI81
(I4
I0
tp85
sI83
(I2
I1
tp86
sI54
(I2
I0
tp87
sI55
(I2
I1
tp88
sI87
(I2
I0
tp89
sI91
(I1
I1
tp90
sI93
(I2
I0
tp91
ssI16
(dp92
I129
(I1
I0
tp93
sI131
(I0
I0
tp94
sI100
(I2
I0
tp95
sI134
(I4
I1
tp96
sI6
(I3
I0
tp97
sI7
(I1
I3
tp98
sI40
(I2
I0
tp99
sI9
(I3
I0
tp100
sI23
(I3
I1
tp101
sI79
(I0
I3
tp102
sI81
(I2
I0
tp103
sI83
(I3
I2
tp104
sI54
(I0
I0
tp105
sI87
(I1
I0
tp106
sI55
(I2
I1
tp107
sI91
(I1
I1
tp108
sI93
(I2
I1
tp109
ssI23
(dp110
I129
(I2
I1
tp111
sI131
(I2
I2
tp112
sI100
(I3
I3
tp113
sI6
(I2
I3
tp114
sI134
(I2
I2
tp115
sI7
(I1
I4
tp116
sI40
(I1
I0
tp117
sI9
(I0
I1
tp118
sI55
(I1
I4
tp119
sI79
(I1
I1
tp120
sI16
(I2
I4
tp121
sI81
(I2
I1
tp122
sI83
(I2
I0
tp123
sI54
(I0
I4
tp124
sI87
(I4
I2
tp125
sI91
(I2
I3
tp126
sI93
(I1
I2
tp127
ssI6
(dp128
I129
(I1
I4
tp129
sI131
(I1
I1
tp130
sI100
(I1
I2
tp131
sI134
(I0
I2
tp132
sI7
(I2
I1
tp133
sI40
(I2
I3
tp134
sI9
(I3
I1
tp135
sI55
(I0
I1
tp136
sI79
(I2
I0
tp137
sI16
(I3
I1
tp138
sI81
(I1
I1
tp139
sI83
(I1
I2
tp140
sI54
(I2
I1
tp141
sI23
(I3
I0
tp142
sI87
(I1
I0
tp143
sI91
(I2
I2
tp144
sI93
(I3
I1
tp145
ssI40
(dp146
I129
(I0
I0
tp147
sI131
(I2
I1
tp148
sI100
(I1
I2
tp149
sI6
(I2
I1
tp150
sI134
(I1
I1
tp151
sI7
(I2
I0
tp152
sI9
(I2
I0
tp153
sI55
(I0
I1
tp154
sI79
(I0
I0
tp155
sI16
(I2
I1
tp156
sI81
(I5
I2
tp157
sI83
(I1
I0
tp158
sI54
(I4
I2
tp159
sI23
(I2
I1
tp160
sI87
(I1
I1
tp161
sI91
(I2
I0
tp162
sI93
(I2
I1
tp163
ssI54
(dp164
I129
(I3
I3
tp165
sI131
(I2
I1
tp166
sI100
(I2
I1
tp167
sI6
(I2
I3
tp168
sI134
(I1
I4
tp169
sI7
(I0
I1
tp170
sI40
(I2
I3
tp171
sI9
(I2
I0
tp172
sI55
(I4
I0
tp173
sI79
(I2
I1
tp174
sI16
(I2
I2
tp175
sI81
(I1
I2
tp176
sI83
(I1
I1
tp177
sI87
(I2
I1
tp178
sI23
(I2
I1
tp179
sI91
(I1
I0
tp180
sI93
(I0
I1
tp181
ssI55
(dp182
I129
(I0
I2
tp183
sI131
(I2
I2
tp184
sI100
(I0
I0
tp185
sI134
(I2
I4
tp186
sI6
(I1
I1
tp187
sI7
(I4
I2
tp188
sI40
(I1
I2
tp189
sI9
(I1
I1
tp190
sI87
(I1
I0
tp191
sI79
(I0
I3
tp192
sI16
(I1
I2
tp193
sI81
(I1
I0
tp194
sI83
(I1
I1
tp195
sI54
(I5
I0
tp196
sI23
(I0
I3
tp197
sI91
(I1
I1
tp198
sI93
(I2
I0
tp199
ssI65
(dp200
sI76
(dp201
sI79
(dp202
I129
(I1
I1
tp203
sI131
(I1
I1
tp204
sI100
(I0
I2
tp205
sI6
(I3
I2
tp206
sI134
(I1
I2
tp207
sI7
(I1
I1
tp208
sI40
(I3
I0
tp209
sI9
(I0
I0
tp210
sI55
(I3
I1
tp211
sI16
(I4
I1
tp212
sI81
(I1
I1
tp213
sI83
(I1
I1
tp214
sI54
(I2
I1
tp215
sI87
(I1
I0
tp216
sI23
(I1
I0
tp217
sI91
(I2
I2
tp218
sI93
(I1
I0
tp219
ssI81
(dp220
I129
(I2
I1
tp221
sI131
(I1
I2
tp222
sI100
(I0
I0
tp223
sI6
(I1
I3
tp224
sI134
(I1
I6
tp225
sI7
(I1
I0
tp226
sI40
(I0
I4
tp227
sI9
(I0
I3
tp228
sI55
(I1
I2
tp229
sI79
(I2
I1
tp230
sI16
(I0
I0
tp231
sI83
(I1
I0
tp232
sI54
(I1
I1
tp233
sI23
(I1
I3
tp234
sI87
(I3
I0
tp235
sI91
(I1
I1
tp236
sI93
(I4
I1
tp237
ssI83
(dp238
I129
(I1
I3
tp239
sI131
(I0
I0
tp240
sI100
(I1
I1
tp241
sI134
(I3
I2
tp242
sI6
(I0
I0
tp243
sI7
(I1
I0
tp244
sI40
(I2
I1
tp245
sI9
(I0
I1
tp246
sI87
(I0
I2
tp247
sI79
(I3
I2
tp248
sI16
(I2
I3
tp249
sI81
(I1
I0
tp250
sI54
(I2
I2
tp251
sI23
(I5
I1
tp252
sI55
(I3
I1
tp253
sI91
(I2
I4
tp254
sI93
(I3
I1
tp255
ssI87
(dp256
I129
(I0
I2
tp257
sI131
(I3
I1
tp258
sI100
(I0
I1
tp259
sI134
(I2
I2
tp260
sI6
(I0
I2
tp261
sI7
(I1
I0
tp262
sI40
(I1
I1
tp263
sI9
(I0
I2
tp264
sI23
(I0
I0
tp265
sI79
(I0
I0
tp266
sI16
(I0
I1
tp267
sI81
(I1
I1
tp268
sI83
(I1
I0
tp269
sI54
(I3
I1
tp270
sI55
(I0
I1
tp271
sI91
(I1
I1
tp272
sI93
(I2
I0
tp273
ssI91
(dp274
I129
(I0
I3
tp275
sI131
(I0
I0
tp276
sI100
(I2
I2
tp277
sI134
(I2
I6
tp278
sI6
(I3
I1
tp279
sI7
(I1
I1
tp280
sI40
(I1
I0
tp281
sI9
(I1
I3
tp282
sI55
(I2
I0
tp283
sI79
(I2
I2
tp284
sI16
(I0
I4
tp285
sI81
(I0
I0
tp286
sI83
(I0
I3
tp287
sI54
(I1
I2
tp288
sI87
(I1
I0
tp289
sI23
(I4
I0
tp290
sI93
(I1
I3
tp291
ssI93
(dp292
I129
(I0
I0
tp293
sI131
(I3
I2
tp294
sI100
(I2
I2
tp295
sI6
(I2
I1
tp296
sI134
(I0
I0
tp297
sI7
(I2
I3
tp298
sI40
(I0
I3
tp299
sI9
(I2
I4
tp300
sI87
(I3
I1
tp301
sI79
(I1
I1
tp302
sI16
(I0
I0
tp303
sI81
(I2
I0
tp304
sI83
(I2
I1
tp305
sI54
(I2
I0
tp306
sI55
(I0
I1
tp307
sI23
(I0
I2
tp308
sI91
(I0
I1
tp309
ssI100
(dp310
I129
(I0
I3
tp311
sI131
(I1
I0
tp312
sI6
(I0
I0
tp313
sI134
(I1
I1
tp314
sI7
(I3
I0
tp315
sI40
(I1
I2
tp316
sI9
(I1
I2
tp317
sI55
(I0
I0
tp318
sI79
(I0
I0
tp319
sI16
(I2
I4
tp320
sI81
(I2
I2
tp321
sI83
(I1
I1
tp322
sI54
(I1
I1
tp323
sI87
(I1
I1
tp324
sI23
(I4
I0
tp325
sI91
(I3
I1
tp326
sI93
(I1
I1
tp327
ssI102
(dp328
sI105
(dp329
sI107
(dp330
sI112
(dp331
sI123
(dp332
s.