(dp1
I129
(dp2
I16
(I2
I0
tp3
sI131
(I5
I1
tp4
sI100
(I1
I2
tp5
sI134
(I1
I4
tp6
sI102
(I0
I1
tp7
sI7
(I2
I2
tp8
sI40
(I1
I3
tp9
sI9
(I0
I2
tp10
sI55
(I1
I0
tp11
sI76
(I1
I1
tp12
sI79
(I3
I1
tp13
sI112
(I3
I1
tp14
sI81
(I2
I6
tp15
sI83
(I1
I1
tp16
sI54
(I2
I2
tp17
sI87
(I3
I0
tp18
sI6
(I2
I2
tp19
ssI131
(dp20
I129
(I3
I0
tp21
sI100
(I1
I0
tp22
sI134
(I2
I3
tp23
sI16
(I3
I0
tp24
sI7
(I1
I2
tp25
sI40
(I0
I3
tp26
sI9
(I3
I0
tp27
sI55
(I1
I0
tp28
sI76
(I2
I1
tp29
sI79
(I0
I1
tp30
sI112
(I0
I1
tp31
sI81
(I4
I3
tp32
sI83
(I5
I0
tp33
sI54
(I2
I3
tp34
sI87
(I2
I1
tp35
sI6
(I2
I2
tp36
sI102
(I4
I0
tp37
ssI134
(dp38
I129
(I4
I0
tp39
sI131
(I1
I2
tp40
sI100
(I1
I1
tp41
sI102
(I3
I2
tp42
sI6
(I2
I2
tp43
sI7
(I2
I0
tp44
sI40
(I1
I2
tp45
sI9
(I1
I0
tp46
sI87
(I2
I0
tp47
sI76
(I1
I1
tp48
sI112
(I4
I1
tp49
sI79
(I4
I1
tp50
sI16
(I1
I2
tp51
sI81
(I0
I0
tp52
sI83
(I3
I0
tp53
sI54
(I0
I1
tp54
sI55
(I3
I0
tp55
ssI7
(dp56
I129
(I1
I0
tp57
sI131
(I1
I2
tp58
sI100
(I0
I2
tp59
sI134
(I1
I0
tp60
sI6
(I1
I0
tp61
sI40
(I2
I2
tp62
sI9
(I0
I1
tp63
sI87
(I1
I1
tp64
sI76
(I4
I2
tp65
sI79
(I2
I2
tp66
sI112
(I2
I0
tp67
sI81
(I3
I0
tp68
sI83
(I1
I1
tp69
sI54
(I2
I1
tp70
sI55
(I1
I1
tp71
sI102
(I2
I1
tp72
sI16
(I0
I2
tp73
ssI9
(dp74
I129
(I3
I2
tp75
sI131
(I3
I0
tp76
sI100
(I1
I2
tp77
sI134
(I2
I1
tp78
sI102
(I0
I2
tp79
sI7
(I1
I2
tp80
sI40
(I1
I0
tp81
sI112
(I1
I1
tp82
sI55
(I1
I0
tp83
sI76
(I2
I1
tp84
sI79
(I4
I1
tp85
sI16
(I3
I2
tp86
sI81
(I2
I1
tp87
sI83
(I2
I1
tp88
sI54
(I1
I3
tp89
sI87
(I3
I2
tp90
sI6
(I3
I3
tp91
ssI16
(dp92
I129
(I5
I2
tp93
sI131
(I0
I0
tp94
sI100
(I2
I0
tp95
sI134
(I1
I2
tp96
sI102
(I4
I0
tp97
sI7
(I2
I0
tp98
sI40
(I1
I3
tp99
sI9
(I3
I0
tp100
sI55
(I1
I0
tp101
sI76
(I1
I1
tp102
sI79
(I2
I4
tp103
sI112
(I1
I0
tp104
sI81
(I4
I2
tp105
sI83
(I2
I1
tp106
sI54
(I1
I0
tp107
sI87
(I1
I0
tp108
sI6
(I3
I0
tp109
ssI23
(dp110
sI6
(dp111
I129
(I4
I0
tp112
sI131
(I2
I1
tp113
sI100
(I3
I0
tp114
sI134
(I2
I1
tp115
sI16
(I1
I1
tp116
sI7
(I0
I1
tp117
sI40
(I4
I1
tp118
sI9
(I0
I3
tp119
sI87
(I5
I1
tp120
sI76
(I2
I0
tp121
sI79
(I2
I2
tp122
sI112
(I4
I1
tp123
sI81
(I2
I0
tp124
sI83
(I3
I2
tp125
sI54
(I3
I3
tp126
sI55
(I2
I1
tp127
sI102
(I3
I0
tp128
ssI40
(dp129
I16
(I2
I2
tp130
sI131
(I2
I0
tp131
sI100
(I3
I0
tp132
sI134
(I1
I0
tp133
sI6
(I2
I0
tp134
sI7
(I5
I0
tp135
sI129
(I3
I1
tp136
sI9
(I0
I1
tp137
sI87
(I2
I1
tp138
sI76
(I3
I1
tp139
sI79
(I6
I3
tp140
sI112
(I3
I1
tp141
sI81
(I4
I2
tp142
sI83
(I1
I0
tp143
sI54
(I1
I1
tp144
sI55
(I3
I0
tp145
sI102
(I3
I1
tp146
ssI54
(dp147
I129
(I2
I2
tp148
sI131
(I3
I1
tp149
sI100
(I4
I1
tp150
sI6
(I3
I1
tp151
sI134
(I1
I1
tp152
sI7
(I0
I1
tp153
sI40
(I0
I0
tp154
sI112
(I3
I1
tp155
sI55
(I0
I0
tp156
sI76
(I1
I1
tp157
sI79
(I2
I1
tp158
sI16
(I0
I0
tp159
sI81
(I1
I1
tp160
sI83
(I3
I0
tp161
sI9
(I4
I1
tp162
sI87
(I6
I0
tp163
sI102
(I1
I1
tp164
ssI55
(dp165
I129
(I3
I0
tp166
sI131
(I3
I0
tp167
sI100
(I2
I1
tp168
sI6
(I0
I3
tp169
sI16
(I0
I0
tp170
sI7
(I1
I3
tp171
sI40
(I0
I1
tp172
sI9
(I1
I0
tp173
sI76
(I3
I1
tp174
sI79
(I1
I0
tp175
sI112
(I2
I2
tp176
sI81
(I2
I0
tp177
sI83
(I0
I1
tp178
sI54
(I0
I1
tp179
sI87
(I2
I1
tp180
sI102
(I0
I1
tp181
sI134
(I1
I4
tp182
ssI65
(dp183
sI76
(dp184
I112
(I3
I0
tp185
sI131
(I0
I0
tp186
sI100
(I2
I1
tp187
sI102
(I2
I1
tp188
sI6
(I0
I0
tp189
sI7
(I1
I0
tp190
sI129
(I1
I2
tp191
sI9
(I2
I0
tp192
sI55
(I0
I2
tp193
sI79
(I1
I3
tp194
sI16
(I2
I3
tp195
sI81
(I2
I0
tp196
sI83
(I2
I1
tp197
sI40
(I0
I4
tp198
sI54
(I0
I2
tp199
sI87
(I1
I0
tp200
sI134
(I1
I2
tp201
ssI79
(dp202
I112
(I3
I0
tp203
sI131
(I4
I0
tp204
sI100
(I1
I3
tp205
sI134
(I1
I2
tp206
sI6
(I2
I4
tp207
sI7
(I2
I2
tp208
sI40
(I2
I2
tp209
sI9
(I0
I2
tp210
sI87
(I0
I0
tp211
sI76
(I1
I3
tp212
sI129
(I2
I1
tp213
sI16
(I1
I1
tp214
sI81
(I1
I2
tp215
sI83
(I1
I2
tp216
sI54
(I0
I0
tp217
sI55
(I1
I1
tp218
sI102
(I3
I0
tp219
ssI81
(dp220
I129
(I1
I0
tp221
sI131
(I0
I2
tp222
sI100
(I2
I1
tp223
sI134
(I2
I1
tp224
sI102
(I3
I1
tp225
sI7
(I1
I1
tp226
sI40
(I2
I4
tp227
sI112
(I5
I0
tp228
sI55
(I2
I0
tp229
sI76
(I3
I2
tp230
sI79
(I0
I1
tp231
sI16
(I2
I3
tp232
sI83
(I0
I0
tp233
sI9
(I2
I1
tp234
sI54
(I0
I3
tp235
sI87
(I1
I1
tp236
sI6
(I2
I0
tp237
ssI83
(dp238
I129
(I1
I2
tp239
sI131
(I1
I2
tp240
sI100
(I3
I4
tp241
sI102
(I1
I1
tp242
sI134
(I2
I1
tp243
sI7
(I1
I0
tp244
sI40
(I3
I1
tp245
sI112
(I3
I1
tp246
sI55
(I0
I1
tp247
sI76
(I0
I2
tp248
sI79
(I3
I1
tp249
sI16
(I0
I2
tp250
sI81
(I1
I1
tp251
sI9
(I0
I2
tp252
sI54
(I1
I0
tp253
sI87
(I0
I0
tp254
sI6
(I1
I0
tp255
ssI87
(dp256
I129
(I2
I2
tp257
sI131
(I1
I0
tp258
sI100
(I1
I3
tp259
sI134
(I3
I1
tp260
sI102
(I2
I2
tp261
sI7
(I2
I3
tp262
sI40
(I2
I0
tp263
sI9
(I1
I3
tp264
sI76
(I2
I0
tp265
sI79
(I2
I1
tp266
sI112
(I3
I2
tp267
sI81
(I1
I1
tp268
sI83
(I1
I0
tp269
sI54
(I0
I0
tp270
sI55
(I0
I2
tp271
sI6
(I1
I1
tp272
sI16
(I2
I0
tp273
ssI91
(dp274
sI93
(dp275
sI100
(dp276
I16
(I2
I1
tp277
sI131
(I3
I1
tp278
sI134
(I1
I2
tp279
sI6
(I1
I0
tp280
sI7
(I2
I3
tp281
sI40
(I0
I2
tp282
sI9
(I1
I2
tp283
sI87
(I0
I0
tp284
sI76
(I2
I1
tp285
sI129
(I0
I1
tp286
sI79
(I4
I3
tp287
sI112
(I4
I0
tp288
sI81
(I2
I1
tp289
sI83
(I0
I2
tp290
sI54
(I2
I1
tp291
sI55
(I0
I2
tp292
sI102
(I3
I0
tp293
ssI102
(dp294
I129
(I3
I1
tp295
sI131
(I1
I2
tp296
sI100
(I0
I6
tp297
sI6
(I0
I2
tp298
sI134
(I0
I4
tp299
sI7
(I1
I1
tp300
sI40
(I0
I2
tp301
sI9
(I2
I2
tp302
sI87
(I0
I0
tp303
sI76
(I2
I3
tp304
sI79
(I0
I2
tp305
sI112
(I0
I0
tp306
sI81
(I2
I0
tp307
sI83
(I1
I1
tp308
sI54
(I2
I1
tp309
sI55
(I1
I3
tp310
sI16
(I2
I1
tp311
ssI105
(dp312
sI107
(dp313
sI112
(dp314
I129
(I1
I1
tp315
sI131
(I1
I0
tp316
sI100
(I1
I1
tp317
sI134
(I0
I6
tp318
sI102
(I0
I0
tp319
sI7
(I2
I2
tp320
sI40
(I0
I1
tp321
sI9
(I2
I3
tp322
sI55
(I0
I0
tp323
sI76
(I1
I2
tp324
sI79
(I2
I3
tp325
sI16
(I2
I0
tp326
sI81
(I1
I2
tp327
sI83
(I2
I3
tp328
sI54
(I1
I3
tp329
sI87
(I1
I1
tp330
sI6
(I1
I3
tp331
ssI123
(dp332
s.