(dp1
I129
(dp2
I54
(I1
I0
tp3
sI87
(I3
I3
tp4
ssI131
(dp5
I16
(I2
I0
tp6
sI100
(I2
I4
tp7
ssI6
(dp8
I123
(I1
I0
tp9
ssI7
(dp10
I16
(I1
I1
tp11
sI65
(I1
I0
tp12
ssI9
(dp13
I129
(I3
I0
tp14
ssI16
(dp15
I112
(I4
I2
tp16
ssI23
(dp17
sI134
(dp18
I91
(I2
I3
tp19
sI87
(I3
I0
tp20
ssI40
(dp21
I134
(I1
I1
tp22
ssI54
(dp23
I55
(I1
I0
tp24
ssI55
(dp25
I81
(I1
I1
tp26
ssI65
(dp27
I91
(I0
I0
tp28
sI131
(I1
I3
tp29
ssI76
(dp30
sI79
(dp31
I9
(I1
I2
tp32
sI55
(I0
I2
tp33
ssI81
(dp34
I40
(I2
I1
tp35
sI6
(I2
I2
tp36
ssI83
(dp37
sI87
(dp38
I54
(I2
I1
tp39
ssI91
(dp40
I79
(I1
I1
tp41
ssI93
(dp42
sI100
(dp43
I7
(I4
I1
tp44
ssI102
(dp45
sI105
(dp46
sI107
(dp47
sI112
(dp48
I100
(I1
I1
tp49
sI6
(I0
I5
tp50
ssI123
(dp51
I40
(I1
I1
tp52
sI9
(I0
I0
tp53
ss.