(dp1
I129
(dp2
I65
(I1
I2
tp3
sI131
(I2
I2
tp4
sI100
(I1
I1
tp5
sI6
(I2
I3
tp6
sI134
(I0
I0
tp7
sI7
(I0
I2
tp8
sI40
(I0
I3
tp9
sI105
(I2
I0
tp10
sI55
(I0
I2
tp11
sI16
(I1
I2
tp12
sI91
(I2
I0
tp13
sI83
(I2
I0
tp14
sI9
(I2
I1
tp15
sI54
(I2
I3
tp16
sI87
(I2
I2
tp17
sI123
(I1
I3
tp18
sI93
(I3
I2
tp19
ssI131
(dp20
I65
(I2
I1
tp21
sI123
(I4
I0
tp22
sI100
(I3
I0
tp23
sI134
(I5
I1
tp24
sI6
(I2
I1
tp25
sI129
(I2
I0
tp26
sI40
(I5
I1
tp27
sI105
(I1
I0
tp28
sI55
(I2
I1
tp29
sI16
(I4
I1
tp30
sI83
(I4
I1
tp31
sI9
(I4
I3
tp32
sI54
(I2
I1
tp33
sI87
(I3
I0
tp34
sI7
(I3
I0
tp35
sI91
(I2
I2
tp36
sI93
(I3
I0
tp37
ssI134
(dp38
I65
(I3
I1
tp39
sI83
(I1
I2
tp40
sI91
(I5
I0
tp41
sI100
(I2
I0
tp42
sI6
(I0
I2
tp43
sI7
(I3
I3
tp44
sI40
(I0
I0
tp45
sI9
(I1
I1
tp46
sI55
(I4
I1
tp47
sI129
(I3
I2
tp48
sI16
(I4
I0
tp49
sI131
(I2
I1
tp50
sI105
(I1
I3
tp51
sI54
(I5
I1
tp52
sI87
(I1
I1
tp53
sI123
(I5
I4
tp54
sI93
(I3
I0
tp55
ssI7
(dp56
I129
(I1
I1
tp57
sI83
(I6
I0
tp58
sI131
(I0
I0
tp59
sI100
(I2
I0
tp60
sI134
(I1
I0
tp61
sI6
(I1
I1
tp62
sI65
(I3
I1
tp63
sI40
(I1
I1
tp64
sI9
(I3
I3
tp65
sI87
(I2
I1
tp66
sI16
(I3
I0
tp67
sI123
(I0
I0
tp68
sI105
(I4
I0
tp69
sI54
(I1
I1
tp70
sI55
(I1
I1
tp71
sI91
(I4
I0
tp72
sI93
(I1
I1
tp73
ssI9
(dp74
I123
(I2
I3
tp75
sI129
(I1
I0
tp76
sI131
(I2
I2
tp77
sI100
(I1
I2
tp78
sI6
(I1
I2
tp79
sI134
(I1
I0
tp80
sI7
(I1
I1
tp81
sI40
(I1
I2
tp82
sI105
(I2
I0
tp83
sI87
(I3
I1
tp84
sI16
(I1
I2
tp85
sI83
(I0
I0
tp86
sI54
(I1
I0
tp87
sI55
(I3
I0
tp88
sI91
(I1
I0
tp89
sI93
(I4
I0
tp90
sI65
(I1
I0
tp91
ssI16
(dp92
I129
(I2
I0
tp93
sI91
(I2
I0
tp94
sI100
(I1
I0
tp95
sI6
(I0
I2
tp96
sI134
(I4
I1
tp97
sI65
(I1
I3
tp98
sI40
(I2
I2
tp99
sI105
(I3
I1
tp100
sI87
(I2
I0
tp101
sI83
(I0
I0
tp102
sI9
(I2
I0
tp103
sI131
(I4
I1
tp104
sI54
(I2
I0
tp105
sI55
(I2
I0
tp106
sI7
(I2
I1
tp107
sI123
(I3
I3
tp108
sI93
(I2
I0
tp109
ssI23
(dp110
sI6
(dp111
I65
(I2
I0
tp112
sI131
(I2
I0
tp113
sI100
(I1
I2
tp114
sI134
(I1
I1
tp115
sI7
(I2
I3
tp116
sI40
(I0
I2
tp117
sI9
(I2
I1
tp118
sI87
(I5
I0
tp119
sI129
(I1
I1
tp120
sI16
(I2
I4
tp121
sI91
(I1
I1
tp122
sI83
(I2
I2
tp123
sI105
(I0
I1
tp124
sI54
(I0
I1
tp125
sI55
(I4
I0
tp126
sI123
(I5
I2
tp127
sI93
(I1
I1
tp128
ssI40
(dp129
I129
(I3
I3
tp130
sI131
(I4
I2
tp131
sI100
(I2
I2
tp132
sI6
(I3
I0
tp133
sI134
(I2
I5
tp134
sI7
(I3
I1
tp135
sI105
(I1
I0
tp136
sI87
(I2
I1
tp137
sI16
(I2
I1
tp138
sI91
(I4
I0
tp139
sI83
(I3
I1
tp140
sI9
(I0
I1
tp141
sI54
(I4
I1
tp142
sI55
(I5
I1
tp143
sI123
(I2
I1
tp144
sI93
(I4
I1
tp145
sI65
(I1
I2
tp146
ssI54
(dp147
I65
(I2
I1
tp148
sI131
(I2
I2
tp149
sI100
(I2
I1
tp150
sI134
(I2
I1
tp151
sI6
(I1
I0
tp152
sI7
(I1
I3
tp153
sI40
(I2
I1
tp154
sI105
(I4
I0
tp155
sI87
(I2
I1
tp156
sI129
(I2
I0
tp157
sI16
(I2
I1
tp158
sI91
(I2
I1
tp159
sI83
(I1
I1
tp160
sI9
(I0
I0
tp161
sI55
(I3
I0
tp162
sI123
(I1
I0
tp163
sI93
(I0
I1
tp164
ssI55
(dp165
I129
(I1
I1
tp166
sI91
(I1
I1
tp167
sI100
(I3
I0
tp168
sI6
(I1
I0
tp169
sI134
(I1
I1
tp170
sI7
(I4
I4
tp171
sI40
(I1
I0
tp172
sI105
(I3
I2
tp173
sI16
(I3
I3
tp174
sI83
(I1
I1
tp175
sI9
(I1
I0
tp176
sI131
(I0
I5
tp177
sI54
(I2
I0
tp178
sI87
(I5
I1
tp179
sI123
(I2
I5
tp180
sI93
(I0
I0
tp181
sI65
(I2
I1
tp182
ssI65
(dp183
I129
(I1
I1
tp184
sI83
(I1
I1
tp185
sI123
(I1
I3
tp186
sI100
(I1
I2
tp187
sI134
(I1
I0
tp188
sI6
(I0
I2
tp189
sI7
(I0
I1
tp190
sI40
(I0
I3
tp191
sI9
(I1
I0
tp192
sI87
(I2
I4
tp193
sI16
(I0
I3
tp194
sI131
(I1
I1
tp195
sI105
(I0
I0
tp196
sI54
(I1
I2
tp197
sI55
(I2
I1
tp198
sI91
(I1
I1
tp199
sI93
(I1
I0
tp200
ssI76
(dp201
sI79
(dp202
sI81
(dp203
sI83
(dp204
I65
(I2
I0
tp205
sI131
(I0
I3
tp206
sI100
(I2
I4
tp207
sI6
(I2
I1
tp208
sI134
(I2
I2
tp209
sI7
(I0
I0
tp210
sI129
(I1
I1
tp211
sI105
(I1
I2
tp212
sI55
(I2
I2
tp213
sI16
(I2
I2
tp214
sI40
(I0
I1
tp215
sI123
(I0
I2
tp216
sI9
(I0
I2
tp217
sI54
(I1
I1
tp218
sI87
(I0
I2
tp219
sI91
(I0
I0
tp220
sI93
(I1
I1
tp221
ssI87
(dp222
I65
(I1
I2
tp223
sI83
(I1
I1
tp224
sI123
(I1
I1
tp225
sI100
(I4
I1
tp226
sI6
(I1
I3
tp227
sI134
(I3
I2
tp228
sI129
(I0
I1
tp229
sI40
(I2
I2
tp230
sI105
(I1
I0
tp231
sI7
(I1
I1
tp232
sI16
(I1
I3
tp233
sI131
(I1
I2
tp234
sI9
(I1
I0
tp235
sI54
(I0
I1
tp236
sI55
(I3
I2
tp237
sI91
(I1
I2
tp238
sI93
(I1
I3
tp239
ssI91
(dp240
I129
(I4
I0
tp241
sI131
(I0
I2
tp242
sI100
(I2
I3
tp243
sI134
(I0
I5
tp244
sI6
(I0
I2
tp245
sI65
(I2
I2
tp246
sI40
(I1
I2
tp247
sI105
(I2
I1
tp248
sI87
(I4
I1
tp249
sI16
(I2
I2
tp250
sI83
(I1
I1
tp251
sI9
(I1
I2
tp252
sI54
(I0
I2
tp253
sI55
(I4
I0
tp254
sI7
(I0
I2
tp255
sI123
(I1
I1
tp256
sI93
(I2
I1
tp257
ssI93
(dp258
I129
(I1
I1
tp259
sI123
(I0
I3
tp260
sI100
(I1
I2
tp261
sI6
(I3
I0
tp262
sI134
(I2
I1
tp263
sI7
(I0
I1
tp264
sI40
(I1
I3
tp265
sI9
(I0
I2
tp266
sI55
(I3
I1
tp267
sI16
(I0
I3
tp268
sI83
(I2
I1
tp269
sI131
(I2
I0
tp270
sI54
(I1
I3
tp271
sI105
(I1
I0
tp272
sI87
(I0
I1
tp273
sI91
(I2
I3
tp274
sI65
(I0
I2
tp275
ssI100
(dp276
I123
(I1
I0
tp277
sI129
(I3
I1
tp278
sI131
(I1
I3
tp279
sI134
(I2
I1
tp280
sI6
(I3
I2
tp281
sI7
(I2
I1
tp282
sI40
(I1
I0
tp283
sI105
(I2
I1
tp284
sI87
(I1
I0
tp285
sI16
(I2
I0
tp286
sI83
(I2
I0
tp287
sI54
(I1
I1
tp288
sI9
(I1
I1
tp289
sI55
(I2
I1
tp290
sI91
(I1
I0
tp291
sI93
(I2
I0
tp292
sI65
(I0
I1
tp293
ssI102
(dp294
sI105
(dp295
I123
(I2
I2
tp296
sI129
(I1
I0
tp297
sI131
(I2
I1
tp298
sI100
(I3
I2
tp299
sI134
(I1
I0
tp300
sI6
(I3
I3
tp301
sI65
(I0
I2
tp302
sI40
(I0
I1
tp303
sI9
(I0
I3
tp304
sI7
(I0
I1
tp305
sI16
(I0
I2
tp306
sI83
(I0
I1
tp307
sI54
(I4
I0
tp308
sI87
(I0
I0
tp309
sI55
(I2
I3
tp310
sI91
(I0
I1
tp311
sI93
(I0
I0
tp312
ssI107
(dp313
sI112
(dp314
sI123
(dp315
I129
(I0
I3
tp316
sI131
(I3
I2
tp317
sI100
(I3
I0
tp318
sI134
(I0
I0
tp319
sI6
(I1
I4
tp320
sI7
(I4
I1
tp321
sI40
(I2
I2
tp322
sI105
(I4
I1
tp323
sI55
(I2
I2
tp324
sI16
(I0
I0
tp325
sI83
(I3
I0
tp326
sI9
(I1
I1
tp327
sI54
(I0
I1
tp328
sI87
(I1
I0
tp329
sI91
(I2
I1
tp330
sI93
(I2
I0
tp331
sI65
(I2
I0
tp332
ss.