(dp1
I129
(dp2
I131
(I5
I3
tp3
sI100
(I2
I1
tp4
sI6
(I2
I0
tp5
sI134
(I2
I2
tp6
sI7
(I3
I3
tp7
sI40
(I1
I2
tp8
sI105
(I2
I2
tp9
sI107
(I1
I1
tp10
sI79
(I3
I3
tp11
sI16
(I1
I1
tp12
sI102
(I1
I2
tp13
sI83
(I3
I0
tp14
sI9
(I0
I3
tp15
sI54
(I1
I1
tp16
sI55
(I2
I1
tp17
sI91
(I0
I0
tp18
sI93
(I3
I3
tp19
ssI131
(dp20
I129
(I0
I1
tp21
sI100
(I1
I1
tp22
sI134
(I1
I1
tp23
sI102
(I1
I0
tp24
sI7
(I4
I0
tp25
sI40
(I0
I0
tp26
sI9
(I1
I1
tp27
sI107
(I2
I1
tp28
sI79
(I3
I1
tp29
sI16
(I4
I0
tp30
sI83
(I1
I3
tp31
sI54
(I0
I0
tp32
sI105
(I1
I2
tp33
sI55
(I3
I2
tp34
sI6
(I1
I2
tp35
sI91
(I2
I2
tp36
sI93
(I3
I0
tp37
ssI134
(dp38
I129
(I1
I2
tp39
sI131
(I0
I1
tp40
sI100
(I2
I1
tp41
sI6
(I5
I2
tp42
sI102
(I1
I0
tp43
sI7
(I2
I0
tp44
sI40
(I0
I4
tp45
sI105
(I4
I0
tp46
sI107
(I1
I2
tp47
sI79
(I2
I0
tp48
sI16
(I4
I1
tp49
sI83
(I8
I1
tp50
sI54
(I3
I2
tp51
sI9
(I5
I1
tp52
sI55
(I6
I1
tp53
sI91
(I2
I1
tp54
sI93
(I2
I0
tp55
ssI7
(dp56
I129
(I2
I1
tp57
sI131
(I2
I4
tp58
sI100
(I0
I3
tp59
sI102
(I1
I0
tp60
sI134
(I3
I0
tp61
sI40
(I0
I0
tp62
sI9
(I2
I3
tp63
sI107
(I1
I3
tp64
sI79
(I0
I0
tp65
sI16
(I3
I2
tp66
sI83
(I6
I1
tp67
sI54
(I1
I1
tp68
sI105
(I1
I1
tp69
sI55
(I1
I3
tp70
sI6
(I2
I1
tp71
sI91
(I1
I1
tp72
sI93
(I3
I0
tp73
ssI9
(dp74
I129
(I1
I0
tp75
sI131
(I1
I2
tp76
sI100
(I1
I1
tp77
sI6
(I1
I1
tp78
sI134
(I1
I1
tp79
sI7
(I4
I1
tp80
sI40
(I0
I1
tp81
sI105
(I0
I2
tp82
sI107
(I2
I1
tp83
sI93
(I5
I0
tp84
sI79
(I2
I1
tp85
sI16
(I4
I1
tp86
sI83
(I3
I0
tp87
sI54
(I1
I0
tp88
sI55
(I1
I1
tp89
sI91
(I1
I0
tp90
sI102
(I1
I0
tp91
ssI16
(dp92
I129
(I1
I0
tp93
sI131
(I3
I1
tp94
sI100
(I1
I0
tp95
sI134
(I6
I3
tp96
sI6
(I1
I0
tp97
sI7
(I1
I2
tp98
sI40
(I3
I1
tp99
sI9
(I2
I2
tp100
sI107
(I1
I0
tp101
sI79
(I3
I0
tp102
sI102
(I4
I1
tp103
sI83
(I2
I2
tp104
sI105
(I3
I1
tp105
sI54
(I1
I3
tp106
sI55
(I0
I2
tp107
sI91
(I4
I1
tp108
sI93
(I3
I0
tp109
ssI23
(dp110
sI6
(dp111
I129
(I2
I0
tp112
sI131
(I2
I2
tp113
sI100
(I1
I1
tp114
sI134
(I0
I1
tp115
sI102
(I3
I0
tp116
sI7
(I2
I2
tp117
sI40
(I0
I1
tp118
sI105
(I3
I0
tp119
sI107
(I4
I1
tp120
sI79
(I4
I1
tp121
sI16
(I3
I0
tp122
sI83
(I4
I0
tp123
sI54
(I1
I2
tp124
sI9
(I1
I0
tp125
sI55
(I2
I0
tp126
sI91
(I0
I2
tp127
sI93
(I0
I0
tp128
ssI40
(dp129
I129
(I3
I1
tp130
sI131
(I2
I1
tp131
sI100
(I1
I1
tp132
sI134
(I1
I1
tp133
sI102
(I3
I0
tp134
sI7
(I5
I0
tp135
sI9
(I1
I1
tp136
sI107
(I0
I0
tp137
sI79
(I3
I0
tp138
sI16
(I4
I1
tp139
sI83
(I2
I0
tp140
sI105
(I2
I0
tp141
sI54
(I4
I1
tp142
sI55
(I3
I0
tp143
sI6
(I2
I1
tp144
sI91
(I0
I0
tp145
sI93
(I5
I0
tp146
ssI54
(dp147
I129
(I2
I0
tp148
sI131
(I2
I1
tp149
sI100
(I0
I0
tp150
sI6
(I0
I3
tp151
sI102
(I1
I3
tp152
sI7
(I3
I2
tp153
sI40
(I0
I0
tp154
sI9
(I1
I2
tp155
sI107
(I2
I0
tp156
sI79
(I1
I0
tp157
sI16
(I3
I1
tp158
sI83
(I1
I0
tp159
sI105
(I3
I1
tp160
sI55
(I1
I0
tp161
sI91
(I0
I3
tp162
sI93
(I0
I0
tp163
sI134
(I1
I2
tp164
ssI55
(dp165
I129
(I3
I2
tp166
sI131
(I2
I2
tp167
sI100
(I0
I1
tp168
sI134
(I4
I3
tp169
sI6
(I0
I3
tp170
sI7
(I2
I1
tp171
sI40
(I0
I3
tp172
sI9
(I2
I3
tp173
sI107
(I2
I1
tp174
sI93
(I4
I0
tp175
sI79
(I2
I1
tp176
sI16
(I0
I0
tp177
sI83
(I2
I2
tp178
sI54
(I2
I2
tp179
sI105
(I2
I2
tp180
sI91
(I2
I1
tp181
sI102
(I3
I0
tp182
ssI65
(dp183
sI76
(dp184
sI79
(dp185
I129
(I1
I1
tp186
sI131
(I1
I0
tp187
sI100
(I0
I0
tp188
sI134
(I0
I1
tp189
sI6
(I1
I2
tp190
sI7
(I2
I0
tp191
sI40
(I1
I1
tp192
sI105
(I0
I2
tp193
sI107
(I2
I0
tp194
sI93
(I1
I1
tp195
sI16
(I0
I1
tp196
sI83
(I2
I2
tp197
sI9
(I0
I2
tp198
sI54
(I2
I1
tp199
sI55
(I2
I2
tp200
sI91
(I5
I1
tp201
sI102
(I1
I1
tp202
ssI81
(dp203
sI83
(dp204
I129
(I2
I0
tp205
sI131
(I0
I1
tp206
sI100
(I0
I1
tp207
sI134
(I1
I1
tp208
sI102
(I4
I2
tp209
sI7
(I2
I2
tp210
sI40
(I0
I1
tp211
sI9
(I0
I2
tp212
sI107
(I0
I2
tp213
sI79
(I3
I1
tp214
sI16
(I2
I0
tp215
sI105
(I1
I0
tp216
sI54
(I2
I0
tp217
sI55
(I0
I2
tp218
sI6
(I1
I0
tp219
sI91
(I2
I2
tp220
sI93
(I1
I1
tp221
ssI87
(dp222
sI91
(dp223
I129
(I1
I1
tp224
sI131
(I2
I3
tp225
sI100
(I2
I1
tp226
sI102
(I1
I0
tp227
sI6
(I2
I1
tp228
sI7
(I1
I1
tp229
sI40
(I1
I3
tp230
sI105
(I0
I1
tp231
sI107
(I4
I2
tp232
sI79
(I1
I3
tp233
sI16
(I1
I4
tp234
sI83
(I2
I1
tp235
sI9
(I2
I2
tp236
sI54
(I1
I0
tp237
sI55
(I0
I0
tp238
sI93
(I2
I1
tp239
sI134
(I1
I0
tp240
ssI93
(dp241
I129
(I1
I2
tp242
sI131
(I1
I2
tp243
sI100
(I2
I0
tp244
sI6
(I2
I3
tp245
sI134
(I0
I2
tp246
sI7
(I0
I2
tp247
sI40
(I2
I0
tp248
sI9
(I1
I0
tp249
sI107
(I1
I2
tp250
sI79
(I1
I1
tp251
sI16
(I0
I1
tp252
sI83
(I1
I0
tp253
sI54
(I2
I1
tp254
sI105
(I2
I0
tp255
sI55
(I5
I1
tp256
sI91
(I2
I2
tp257
sI102
(I2
I1
tp258
ssI100
(dp259
I129
(I3
I0
tp260
sI131
(I2
I2
tp261
sI102
(I2
I0
tp262
sI6
(I1
I0
tp263
sI7
(I1
I0
tp264
sI40
(I1
I1
tp265
sI9
(I0
I1
tp266
sI107
(I0
I1
tp267
sI79
(I1
I0
tp268
sI16
(I4
I1
tp269
sI83
(I1
I1
tp270
sI105
(I7
I0
tp271
sI54
(I2
I1
tp272
sI55
(I1
I1
tp273
sI91
(I4
I1
tp274
sI93
(I0
I0
tp275
sI134
(I0
I1
tp276
ssI102
(dp277
I129
(I2
I0
tp278
sI131
(I0
I1
tp279
sI100
(I1
I3
tp280
sI6
(I1
I2
tp281
sI134
(I1
I2
tp282
sI7
(I0
I1
tp283
sI40
(I1
I2
tp284
sI9
(I1
I1
tp285
sI107
(I2
I0
tp286
sI79
(I1
I2
tp287
sI16
(I2
I1
tp288
sI83
(I1
I1
tp289
sI54
(I0
I0
tp290
sI105
(I0
I0
tp291
sI55
(I0
I3
tp292
sI91
(I1
I0
tp293
sI93
(I3
I2
tp294
ssI105
(dp295
I129
(I1
I3
tp296
sI131
(I3
I1
tp297
sI100
(I1
I1
tp298
sI102
(I1
I2
tp299
sI6
(I2
I2
tp300
sI7
(I3
I1
tp301
sI40
(I1
I4
tp302
sI9
(I0
I0
tp303
sI107
(I1
I0
tp304
sI79
(I2
I0
tp305
sI16
(I1
I0
tp306
sI83
(I0
I0
tp307
sI54
(I2
I1
tp308
sI55
(I1
I2
tp309
sI91
(I0
I1
tp310
sI93
(I1
I1
tp311
sI134
(I3
I3
tp312
ssI107
(dp313
I129
(I0
I2
tp314
sI131
(I1
I3
tp315
sI100
(I0
I1
tp316
sI102
(I1
I1
tp317
sI134
(I1
I3
tp318
sI7
(I3
I3
tp319
sI40
(I2
I3
tp320
sI9
(I0
I2
tp321
sI79
(I1
I0
tp322
sI16
(I2
I3
tp323
sI83
(I3
I0
tp324
sI105
(I0
I1
tp325
sI54
(I1
I2
tp326
sI55
(I1
I1
tp327
sI6
(I3
I2
tp328
sI91
(I0
I1
tp329
sI93
(I0
I1
tp330
ssI112
(dp331
sI123
(dp332
s.