(dp1
I129
(dp2
I81
(I2
I3
tp3
sI131
(I1
I1
tp4
sI134
(I1
I4
tp5
sI54
(I1
I0
tp6
sI87
(I3
I3
tp7
ssI131
(dp8
I16
(I2
I0
tp9
sI55
(I4
I2
tp10
sI100
(I2
I4
tp11
sI6
(I2
I3
tp12
sI87
(I2
I1
tp13
ssI134
(dp14
I87
(I3
I0
tp15
sI81
(I3
I0
tp16
sI91
(I2
I3
tp17
sI123
(I2
I0
tp18
sI55
(I0
I0
tp19
ssI7
(dp20
I16
(I1
I1
tp21
sI65
(I1
I0
tp22
sI40
(I1
I5
tp23
sI129
(I2
I0
tp24
sI9
(I0
I1
tp25
ssI9
(dp26
I112
(I0
I1
tp27
sI129
(I3
I0
tp28
sI91
(I2
I0
tp29
sI131
(I1
I2
tp30
sI100
(I3
I3
tp31
ssI16
(dp32
I112
(I4
I2
tp33
sI65
(I0
I2
tp34
sI79
(I0
I0
tp35
sI134
(I0
I2
tp36
sI9
(I1
I2
tp37
ssI23
(dp38
sI6
(dp39
I7
(I1
I1
tp40
sI129
(I2
I1
tp41
sI123
(I1
I0
tp42
sI134
(I0
I0
tp43
sI79
(I4
I0
tp44
ssI40
(dp45
I65
(I0
I0
tp46
sI91
(I2
I1
tp47
sI131
(I3
I0
tp48
sI134
(I1
I1
tp49
sI79
(I2
I1
tp50
ssI54
(dp51
I112
(I0
I4
tp52
sI131
(I0
I0
tp53
sI100
(I1
I3
tp54
sI134
(I2
I3
tp55
sI55
(I1
I0
tp56
ssI55
(dp57
I112
(I5
I2
tp58
sI81
(I1
I1
tp59
sI123
(I0
I1
tp60
sI16
(I1
I0
tp61
sI7
(I1
I1
tp62
ssI65
(dp63
I9
(I1
I2
tp64
sI91
(I0
I0
tp65
sI131
(I1
I3
tp66
sI6
(I0
I1
tp67
sI81
(I1
I0
tp68
ssI76
(dp69
sI79
(dp70
I129
(I0
I1
tp71
sI87
(I1
I0
tp72
sI9
(I1
I2
tp73
sI54
(I3
I0
tp74
sI55
(I0
I2
tp75
ssI81
(dp76
I40
(I2
I1
tp77
sI112
(I3
I0
tp78
sI123
(I2
I1
tp79
sI6
(I2
I2
tp80
sI54
(I2
I1
tp81
ssI83
(dp82
sI87
(dp83
I81
(I2
I0
tp84
sI123
(I2
I4
tp85
sI65
(I0
I0
tp86
sI54
(I2
I1
tp87
sI7
(I0
I1
tp88
ssI91
(dp89
I16
(I0
I3
tp90
sI7
(I1
I1
tp91
sI79
(I1
I1
tp92
sI100
(I1
I1
tp93
sI55
(I2
I1
tp94
ssI93
(dp95
sI100
(dp96
I16
(I3
I1
tp97
sI65
(I3
I1
tp98
sI7
(I4
I1
tp99
sI6
(I0
I0
tp100
sI40
(I1
I0
tp101
ssI102
(dp102
sI105
(dp103
sI107
(dp104
sI112
(dp105
I40
(I1
I2
tp106
sI91
(I0
I2
tp107
sI100
(I1
I1
tp108
sI6
(I0
I5
tp109
sI87
(I3
I0
tp110
ssI123
(dp111
I40
(I1
I1
tp112
sI9
(I0
I0
tp113
sI79
(I3
I0
tp114
sI54
(I5
I1
tp115
sI129
(I3
I0
tp116
ss.