(dp1
I129
(dp2
sI131
(dp3
I65
(I1
I1
tp4
sI107
(I1
I1
tp5
sI100
(I0
I1
tp6
sI134
(I1
I1
tp7
sI6
(I2
I1
tp8
sI7
(I2
I2
tp9
sI40
(I0
I0
tp10
sI9
(I0
I0
tp11
sI55
(I2
I1
tp12
sI76
(I2
I2
tp13
sI79
(I1
I1
tp14
sI16
(I0
I1
tp15
sI81
(I0
I3
tp16
sI83
(I0
I0
tp17
sI54
(I1
I1
tp18
sI87
(I2
I0
tp19
sI91
(I1
I0
tp20
ssI134
(dp21
I65
(I6
I0
tp22
sI131
(I6
I1
tp23
sI100
(I1
I1
tp24
sI6
(I2
I1
tp25
sI7
(I3
I2
tp26
sI40
(I3
I0
tp27
sI9
(I0
I0
tp28
sI107
(I2
I0
tp29
sI76
(I0
I2
tp30
sI79
(I6
I2
tp31
sI16
(I1
I1
tp32
sI81
(I4
I2
tp33
sI83
(I5
I2
tp34
sI54
(I0
I3
tp35
sI87
(I2
I0
tp36
sI55
(I5
I0
tp37
sI91
(I4
I1
tp38
ssI7
(dp39
I107
(I2
I0
tp40
sI65
(I2
I1
tp41
sI131
(I3
I2
tp42
sI100
(I1
I1
tp43
sI6
(I1
I2
tp44
sI134
(I0
I1
tp45
sI40
(I1
I2
tp46
sI9
(I1
I2
tp47
sI55
(I0
I2
tp48
sI76
(I2
I1
tp49
sI79
(I2
I1
tp50
sI16
(I0
I0
tp51
sI81
(I1
I1
tp52
sI83
(I2
I0
tp53
sI54
(I2
I0
tp54
sI87
(I2
I1
tp55
sI91
(I1
I1
tp56
ssI9
(dp57
I65
(I1
I1
tp58
sI131
(I2
I2
tp59
sI100
(I0
I2
tp60
sI6
(I7
I4
tp61
sI134
(I2
I1
tp62
sI7
(I0
I0
tp63
sI40
(I1
I1
tp64
sI107
(I3
I0
tp65
sI76
(I2
I1
tp66
sI79
(I2
I0
tp67
sI16
(I3
I2
tp68
sI81
(I1
I0
tp69
sI83
(I3
I1
tp70
sI54
(I0
I0
tp71
sI55
(I2
I0
tp72
sI87
(I1
I1
tp73
sI91
(I2
I0
tp74
ssI16
(dp75
I65
(I2
I3
tp76
sI107
(I0
I1
tp77
sI100
(I1
I2
tp78
sI6
(I0
I2
tp79
sI134
(I0
I0
tp80
sI7
(I0
I0
tp81
sI40
(I0
I0
tp82
sI9
(I2
I0
tp83
sI55
(I2
I2
tp84
sI76
(I1
I0
tp85
sI79
(I1
I0
tp86
sI81
(I2
I1
tp87
sI83
(I1
I1
tp88
sI131
(I2
I1
tp89
sI54
(I3
I3
tp90
sI87
(I1
I1
tp91
sI91
(I0
I2
tp92
ssI23
(dp93
sI6
(dp94
I65
(I2
I1
tp95
sI131
(I4
I0
tp96
sI100
(I0
I1
tp97
sI134
(I1
I1
tp98
sI7
(I2
I1
tp99
sI40
(I2
I5
tp100
sI9
(I1
I1
tp101
sI107
(I3
I2
tp102
sI76
(I5
I1
tp103
sI79
(I2
I2
tp104
sI16
(I1
I1
tp105
sI81
(I1
I2
tp106
sI83
(I1
I1
tp107
sI54
(I1
I2
tp108
sI55
(I0
I0
tp109
sI87
(I2
I1
tp110
sI91
(I2
I1
tp111
ssI40
(dp112
I65
(I2
I2
tp113
sI131
(I2
I0
tp114
sI100
(I1
I2
tp115
sI6
(I1
I0
tp116
sI134
(I3
I1
tp117
sI7
(I3
I3
tp118
sI9
(I3
I0
tp119
sI107
(I4
I0
tp120
sI76
(I2
I1
tp121
sI79
(I2
I1
tp122
sI16
(I3
I1
tp123
sI81
(I2
I1
tp124
sI83
(I2
I0
tp125
sI54
(I3
I0
tp126
sI55
(I1
I0
tp127
sI87
(I3
I0
tp128
sI91
(I5
I2
tp129
ssI54
(dp130
I65
(I2
I4
tp131
sI131
(I3
I0
tp132
sI100
(I4
I2
tp133
sI6
(I1
I5
tp134
sI134
(I1
I2
tp135
sI7
(I0
I0
tp136
sI40
(I0
I0
tp137
sI9
(I1
I2
tp138
sI107
(I3
I2
tp139
sI76
(I3
I0
tp140
sI79
(I1
I1
tp141
sI16
(I2
I0
tp142
sI81
(I3
I1
tp143
sI83
(I1
I0
tp144
sI87
(I2
I2
tp145
sI55
(I1
I1
tp146
sI91
(I2
I0
tp147
ssI55
(dp148
I65
(I1
I0
tp149
sI131
(I2
I4
tp150
sI100
(I2
I1
tp151
sI6
(I2
I2
tp152
sI134
(I0
I0
tp153
sI7
(I1
I2
tp154
sI40
(I1
I1
tp155
sI9
(I1
I2
tp156
sI107
(I1
I1
tp157
sI76
(I5
I1
tp158
sI79
(I1
I1
tp159
sI16
(I3
I3
tp160
sI81
(I2
I2
tp161
sI83
(I0
I1
tp162
sI54
(I2
I2
tp163
sI87
(I1
I1
tp164
sI91
(I2
I0
tp165
ssI65
(dp166
I83
(I4
I2
tp167
sI131
(I3
I0
tp168
sI100
(I0
I1
tp169
sI6
(I0
I3
tp170
sI134
(I1
I4
tp171
sI7
(I0
I0
tp172
sI40
(I1
I2
tp173
sI9
(I2
I2
tp174
sI87
(I2
I1
tp175
sI76
(I2
I3
tp176
sI79
(I3
I4
tp177
sI16
(I0
I0
tp178
sI81
(I1
I0
tp179
sI107
(I3
I1
tp180
sI54
(I0
I1
tp181
sI55
(I1
I4
tp182
sI91
(I1
I1
tp183
ssI76
(dp184
I65
(I2
I2
tp185
sI131
(I3
I2
tp186
sI100
(I0
I3
tp187
sI134
(I1
I5
tp188
sI6
(I2
I2
tp189
sI7
(I3
I3
tp190
sI40
(I1
I1
tp191
sI9
(I0
I2
tp192
sI107
(I5
I3
tp193
sI79
(I1
I3
tp194
sI16
(I1
I1
tp195
sI81
(I0
I2
tp196
sI83
(I2
I0
tp197
sI54
(I0
I2
tp198
sI87
(I3
I0
tp199
sI55
(I1
I0
tp200
sI91
(I1
I2
tp201
ssI79
(dp202
I65
(I2
I1
tp203
sI131
(I1
I0
tp204
sI100
(I2
I1
tp205
sI134
(I3
I1
tp206
sI6
(I1
I1
tp207
sI7
(I1
I2
tp208
sI40
(I1
I2
tp209
sI9
(I1
I1
tp210
sI107
(I3
I0
tp211
sI76
(I3
I2
tp212
sI16
(I0
I1
tp213
sI81
(I3
I0
tp214
sI83
(I2
I3
tp215
sI54
(I2
I1
tp216
sI55
(I1
I1
tp217
sI87
(I5
I2
tp218
sI91
(I0
I1
tp219
ssI81
(dp220
I65
(I4
I2
tp221
sI131
(I5
I1
tp222
sI100
(I1
I3
tp223
sI134
(I0
I2
tp224
sI6
(I3
I1
tp225
sI7
(I1
I1
tp226
sI40
(I2
I2
tp227
sI9
(I1
I0
tp228
sI107
(I1
I1
tp229
sI76
(I0
I2
tp230
sI79
(I4
I1
tp231
sI16
(I1
I2
tp232
sI83
(I1
I1
tp233
sI54
(I2
I2
tp234
sI87
(I3
I0
tp235
sI55
(I0
I0
tp236
sI91
(I2
I2
tp237
ssI83
(dp238
I65
(I3
I2
tp239
sI131
(I0
I1
tp240
sI100
(I0
I2
tp241
sI6
(I1
I0
tp242
sI134
(I0
I1
tp243
sI7
(I1
I0
tp244
sI40
(I1
I2
tp245
sI9
(I0
I1
tp246
sI87
(I0
I2
tp247
sI76
(I0
I0
tp248
sI79
(I0
I0
tp249
sI16
(I2
I1
tp250
sI81
(I2
I0
tp251
sI107
(I0
I2
tp252
sI54
(I3
I0
tp253
sI55
(I4
I1
tp254
sI91
(I1
I0
tp255
ssI87
(dp256
I65
(I2
I0
tp257
sI131
(I1
I1
tp258
sI100
(I0
I0
tp259
sI6
(I1
I1
tp260
sI134
(I2
I1
tp261
sI7
(I2
I1
tp262
sI40
(I1
I3
tp263
sI9
(I0
I0
tp264
sI107
(I2
I1
tp265
sI76
(I4
I1
tp266
sI79
(I0
I1
tp267
sI16
(I1
I1
tp268
sI81
(I1
I0
tp269
sI83
(I2
I0
tp270
sI54
(I2
I2
tp271
sI55
(I2
I2
tp272
sI91
(I4
I3
tp273
ssI91
(dp274
I65
(I6
I3
tp275
sI131
(I1
I1
tp276
sI100
(I1
I2
tp277
sI134
(I0
I1
tp278
sI6
(I1
I4
tp279
sI7
(I2
I0
tp280
sI40
(I0
I1
tp281
sI9
(I0
I1
tp282
sI107
(I5
I2
tp283
sI76
(I2
I2
tp284
sI79
(I1
I0
tp285
sI16
(I1
I1
tp286
sI81
(I0
I0
tp287
sI83
(I3
I0
tp288
sI54
(I1
I1
tp289
sI55
(I0
I1
tp290
sI87
(I0
I2
tp291
ssI93
(dp292
sI100
(dp293
I65
(I3
I1
tp294
sI131
(I0
I1
tp295
sI134
(I1
I2
tp296
sI6
(I0
I2
tp297
sI7
(I2
I4
tp298
sI40
(I2
I0
tp299
sI9
(I1
I0
tp300
sI107
(I2
I0
tp301
sI76
(I3
I0
tp302
sI79
(I3
I0
tp303
sI16
(I0
I2
tp304
sI81
(I1
I0
tp305
sI83
(I2
I1
tp306
sI54
(I2
I1
tp307
sI55
(I1
I1
tp308
sI87
(I2
I0
tp309
sI91
(I1
I1
tp310
ssI102
(dp311
sI105
(dp312
sI107
(dp313
I65
(I1
I1
tp314
sI131
(I1
I0
tp315
sI100
(I0
I2
tp316
sI134
(I3
I5
tp317
sI6
(I1
I3
tp318
sI7
(I1
I1
tp319
sI40
(I1
I3
tp320
sI9
(I1
I1
tp321
sI55
(I0
I0
tp322
sI76
(I2
I2
tp323
sI79
(I1
I0
tp324
sI16
(I1
I1
tp325
sI81
(I0
I0
tp326
sI83
(I1
I1
tp327
sI54
(I2
I1
tp328
sI87
(I1
I1
tp329
sI91
(I0
I1
tp330
ssI112
(dp331
sI123
(dp332
s.