(dp1
I129
(dp2
I87
(I3
I3
tp3
ssI131
(dp4
I16
(I2
I0
tp5
ssI134
(dp6
I91
(I2
I3
tp7
ssI7
(dp8
I65
(I1
I0
tp9
ssI9
(dp10
I129
(I3
I0
tp11
ssI16
(dp12
I112
(I4
I2
tp13
ssI23
(dp14
sI6
(dp15
I123
(I1
I0
tp16
ssI40
(dp17
I134
(I1
I1
tp18
ssI54
(dp19
I55
(I1
I0
tp20
ssI55
(dp21
I81
(I1
I1
tp22
ssI65
(dp23
I131
(I1
I3
tp24
ssI76
(dp25
sI79
(dp26
I9
(I1
I2
tp27
ssI81
(dp28
I6
(I2
I2
tp29
ssI83
(dp30
sI87
(dp31
I54
(I2
I1
tp32
ssI91
(dp33
I79
(I1
I1
tp34
ssI93
(dp35
sI100
(dp36
I7
(I4
I1
tp37
ssI102
(dp38
sI105
(dp39
sI107
(dp40
sI112
(dp41
I100
(I1
I1
tp42
ssI123
(dp43
I40
(I1
I1
tp44
ss.