(dp1
I129
I8
sI131
I17
sI6
I22
sI7
I13
sI9
I20
sI16
I8
sI23
I0
sI134
I21
sI40
I18
sI54
I4
sI55
I12
sI65
I9
sI76
I0
sI79
I8
sI81
I17
sI83
I0
sI87
I8
sI91
I13
sI93
I0
sI100
I22
sI102
I0
sI105
I0
sI107
I0
sI112
I10
sI123
I17
s.