(dp1
I129
I1
sI131
I6
sI6
I4
sI7
I3
sI9
I6
sI16
I3
sI23
I0
sI134
I1
sI40
I2
sI54
I3
sI55
I1
sI65
I0
sI76
I0
sI79
I1
sI81
I2
sI83
I0
sI87
I4
sI91
I4
sI93
I0
sI100
I4
sI102
I0
sI105
I0
sI107
I0
sI112
I1
sI123
I1
s.