(dp1
I129
(lp2
(lp3
I1
aI4
aa(lp4
I0
aI2
aa(lp5
I1
aI1
aa(lp6
I1
aI0
aa(lp7
I2
aI3
aa(lp8
I0
aI3
aa(lp9
I1
aI2
aa(lp10
I1
aI0
aa(lp11
I0
aI3
aa(lp12
I3
aI3
aasI131
(lp13
(lp14
I0
aI0
aa(lp15
I2
aI1
aa(lp16
I1
aI1
aa(lp17
I4
aI2
aa(lp18
I2
aI1
aa(lp19
I2
aI3
aa(lp20
I0
aI3
aa(lp21
I2
aI4
aa(lp22
I3
aI1
aa(lp23
I2
aI0
aasI6
(lp24
(lp25
I1
aI1
aa(lp26
I0
aI0
aa(lp27
I4
aI0
aa(lp28
I1
aI0
aa(lp29
I0
aI0
aa(lp30
I3
aI2
aa(lp31
I2
aI1
aa(lp32
I5
aI0
aa(lp33
I1
aI0
aa(lp34
I2
aI2
aasI7
(lp35
(lp36
I1
aI1
aa(lp37
I2
aI0
aa(lp38
I1
aI0
aa(lp39
I0
aI1
aa(lp40
I1
aI1
aa(lp41
I1
aI5
aa(lp42
I1
aI1
aa(lp43
I1
aI1
aa(lp44
I1
aI4
aa(lp45
I1
aI0
aasI9
(lp46
(lp47
I3
aI3
aa(lp48
I2
aI1
aa(lp49
I2
aI0
aa(lp50
I1
aI0
aa(lp51
I1
aI2
aa(lp52
I2
aI1
aa(lp53
I0
aI1
aa(lp54
I0
aI0
aa(lp55
I3
aI0
aa(lp56
I2
aI1
aasI16
(lp57
(lp58
I0
aI1
aa(lp59
I1
aI2
aa(lp60
I0
aI2
aa(lp61
I3
aI0
aa(lp62
I0
aI2
aa(lp63
I1
aI3
aa(lp64
I0
aI0
aa(lp65
I1
aI1
aa(lp66
I4
aI2
aa(lp67
I0
aI2
aasI23
(lp68
sI134
(lp69
(lp70
I4
aI1
aa(lp71
I2
aI0
aa(lp72
I2
aI0
aa(lp73
I3
aI0
aa(lp74
I0
aI0
aa(lp75
I0
aI0
aa(lp76
I3
aI2
aa(lp77
I3
aI0
aa(lp78
I1
aI1
aa(lp79
I2
aI3
aasI40
(lp80
(lp81
I2
aI1
aa(lp82
I2
aI1
aa(lp83
I0
aI0
aa(lp84
I0
aI1
aa(lp85
I2
aI1
aa(lp86
I5
aI1
aa(lp87
I3
aI0
aa(lp88
I1
aI2
aa(lp89
I1
aI1
aa(lp90
I1
aI1
aasI54
(lp91
(lp92
I0
aI0
aa(lp93
I0
aI3
aa(lp94
I1
aI3
aa(lp95
I1
aI5
aa(lp96
I0
aI4
aa(lp97
I1
aI2
aa(lp98
I2
aI3
aa(lp99
I0
aI1
aa(lp100
I1
aI2
aa(lp101
I1
aI0
aasI55
(lp102
(lp103
I1
aI0
aa(lp104
I1
aI2
aa(lp105
I5
aI2
aa(lp106
I2
aI4
aa(lp107
I1
aI1
aa(lp108
I0
aI0
aa(lp109
I0
aI1
aa(lp110
I2
aI0
aa(lp111
I1
aI1
aa(lp112
I0
aI1
aasI65
(lp113
(lp114
I0
aI0
aa(lp115
I1
aI0
aa(lp116
I0
aI0
aa(lp117
I0
aI1
aa(lp118
I2
aI0
aa(lp119
I1
aI2
aa(lp120
I1
aI3
aa(lp121
I0
aI0
aa(lp122
I1
aI3
aa(lp123
I0
aI1
aasI76
(lp124
sI79
(lp125
(lp126
I0
aI3
aa(lp127
I3
aI0
aa(lp128
I0
aI4
aa(lp129
I0
aI1
aa(lp130
I1
aI2
aa(lp131
I1
aI0
aa(lp132
I0
aI0
aa(lp133
I0
aI2
aa(lp134
I1
aI1
aa(lp135
I1
aI2
aasI81
(lp136
(lp137
I3
aI0
aa(lp138
I0
aI1
aa(lp139
I2
aI1
aa(lp140
I0
aI3
aa(lp141
I3
aI2
aa(lp142
I2
aI1
aa(lp143
I0
aI2
aa(lp144
I2
aI1
aa(lp145
I1
aI1
aa(lp146
I2
aI2
aasI83
(lp147
sI87
(lp148
(lp149
I0
aI0
aa(lp150
I1
aI2
aa(lp151
I0
aI1
aa(lp152
I0
aI3
aa(lp153
I2
aI4
aa(lp154
I0
aI1
aa(lp155
I2
aI0
aa(lp156
I0
aI3
aa(lp157
I2
aI1
aa(lp158
I3
aI3
aasI91
(lp159
(lp160
I1
aI2
aa(lp161
I2
aI1
aa(lp162
I0
aI2
aa(lp163
I0
aI3
aa(lp164
I1
aI1
aa(lp165
I2
aI0
aa(lp166
I1
aI1
aa(lp167
I0
aI0
aa(lp168
I1
aI1
aa(lp169
I3
aI2
aasI93
(lp170
sI100
(lp171
(lp172
I3
aI3
aa(lp173
I0
aI0
aa(lp174
I3
aI1
aa(lp175
I1
aI0
aa(lp176
I1
aI1
aa(lp177
I3
aI1
aa(lp178
I3
aI1
aa(lp179
I4
aI2
aa(lp180
I4
aI1
aa(lp181
I1
aI1
aasI102
(lp182
sI105
(lp183
sI107
(lp184
sI112
(lp185
(lp186
I0
aI3
aa(lp187
I1
aI2
aa(lp188
I2
aI5
aa(lp189
I3
aI0
aa(lp190
I4
aI0
aa(lp191
I0
aI2
aa(lp192
I1
aI0
aa(lp193
I0
aI5
aa(lp194
I2
aI4
aa(lp195
I1
aI1
aasI123
(lp196
(lp197
I3
aI0
aa(lp198
I0
aI2
aa(lp199
I1
aI2
aa(lp200
I5
aI1
aa(lp201
I4
aI2
aa(lp202
I3
aI0
aa(lp203
I1
aI0
aa(lp204
I0
aI0
aa(lp205
I0
aI1
aa(lp206
I1
aI1
aas.