(dp1
I129
(lp2
(lp3
I1
aI0
aa(lp4
I0
aI3
aa(lp5
I3
aI3
aasI131
(lp6
(lp7
I2
aI4
aa(lp8
I3
aI1
aa(lp9
I2
aI0
aasI134
(lp10
(lp11
I3
aI0
aa(lp12
I1
aI1
aa(lp13
I2
aI3
aasI7
(lp14
(lp15
I1
aI1
aa(lp16
I1
aI4
aa(lp17
I1
aI0
aasI9
(lp18
(lp19
I0
aI0
aa(lp20
I3
aI0
aa(lp21
I2
aI1
aasI16
(lp22
(lp23
I1
aI1
aa(lp24
I4
aI2
aa(lp25
I0
aI2
aasI23
(lp26
sI6
(lp27
(lp28
I5
aI0
aa(lp29
I1
aI0
aa(lp30
I2
aI2
aasI40
(lp31
(lp32
I1
aI2
aa(lp33
I1
aI1
aa(lp34
I1
aI1
aasI54
(lp35
(lp36
I0
aI1
aa(lp37
I1
aI2
aa(lp38
I1
aI0
aasI55
(lp39
(lp40
I2
aI0
aa(lp41
I1
aI1
aa(lp42
I0
aI1
aasI65
(lp43
(lp44
I0
aI0
aa(lp45
I1
aI3
aa(lp46
I0
aI1
aasI76
(lp47
sI79
(lp48
(lp49
I0
aI2
aa(lp50
I1
aI1
aa(lp51
I1
aI2
aasI81
(lp52
(lp53
I2
aI1
aa(lp54
I1
aI1
aa(lp55
I2
aI2
aasI83
(lp56
sI87
(lp57
(lp58
I0
aI3
aa(lp59
I2
aI1
aa(lp60
I3
aI3
aasI91
(lp61
(lp62
I0
aI0
aa(lp63
I1
aI1
aa(lp64
I3
aI2
aasI93
(lp65
sI100
(lp66
(lp67
I4
aI2
aa(lp68
I4
aI1
aa(lp69
I1
aI1
aasI102
(lp70
sI105
(lp71
sI107
(lp72
sI112
(lp73
(lp74
I0
aI5
aa(lp75
I2
aI4
aa(lp76
I1
aI1
aasI123
(lp77
(lp78
I0
aI0
aa(lp79
I0
aI1
aa(lp80
I1
aI1
aas.