(dp1
I129
(lp2
(lp3
I0
aI3
aa(lp4
I3
aI3
aasI131
(lp5
(lp6
I3
aI1
aa(lp7
I2
aI0
aasI6
(lp8
(lp9
I1
aI0
aa(lp10
I2
aI2
aasI7
(lp11
(lp12
I1
aI4
aa(lp13
I1
aI0
aasI9
(lp14
(lp15
I3
aI0
aa(lp16
I2
aI1
aasI16
(lp17
(lp18
I4
aI2
aa(lp19
I0
aI2
aasI23
(lp20
sI134
(lp21
(lp22
I1
aI1
aa(lp23
I2
aI3
aasI40
(lp24
(lp25
I1
aI1
aa(lp26
I1
aI1
aasI54
(lp27
(lp28
I1
aI2
aa(lp29
I1
aI0
aasI55
(lp30
(lp31
I1
aI1
aa(lp32
I0
aI1
aasI65
(lp33
(lp34
I1
aI3
aa(lp35
I0
aI1
aasI76
(lp36
sI79
(lp37
(lp38
I1
aI1
aa(lp39
I1
aI2
aasI81
(lp40
(lp41
I1
aI1
aa(lp42
I2
aI2
aasI83
(lp43
sI87
(lp44
(lp45
I2
aI1
aa(lp46
I3
aI3
aasI91
(lp47
(lp48
I1
aI1
aa(lp49
I3
aI2
aasI93
(lp50
sI100
(lp51
(lp52
I4
aI1
aa(lp53
I1
aI1
aasI102
(lp54
sI105
(lp55
sI107
(lp56
sI112
(lp57
(lp58
I2
aI4
aa(lp59
I1
aI1
aasI123
(lp60
(lp61
I0
aI1
aa(lp62
I1
aI1
aas.